Certificate:
    Data:
        Version: 3 (0x2)
        Serial Number:
            62:73:aa:8a:36:f8:84:e6:d0:9f:c3:26:3c:5f:9b:3c:79:a3:d9:0d
        Signature Algorithm: ecdsa-with-SHA256
        Issuer: CN = PHANTOM-CA
        Validity
            Not Before: Feb 20 09:58:46 2025 GMT
            Not After : Feb 18 09:58:46 2035 GMT
        Subject: CN = PHANTOM-CX-8
        Subject Public Key Info:
            Public Key Algorithm: id-ecPublicKey
                Public-Key: (256 bit)
                pub:
                    04:bc:92:c9:14:84:04:38:21:8e:c9:48:99:07:60:
                    3b:b7:9e:70:fd:55:0b:53:ef:fb:82:f6:b4:97:34:
                    ae:e8:0f:41:85:be:0a:33:a2:6c:37:76:58:5b:6d:
                    b9:97:16:9b:94:97:f9:06:28:2e:96:83:d1:36:f5:
                    ac:e9:f3:bc:62
                ASN1 OID: prime256v1
                NIST CURVE: P-256
        X509v3 extensions:
            X509v3 Basic Constraints: critical
                CA:FALSE
            X509v3 Key Usage: critical
                Digital Signature, Key Encipherment
            X509v3 Extended Key Usage: 
                TLS Web Client Authentication
            X509v3 Subject Key Identifier: 
                26:9E:2A:2B:1B:1A:64:27:64:53:78:BE:EA:9C:CA:44:B9:BA:86:10
            X509v3 Authority Key Identifier: 
                5F:90:B8:72:42:48:B5:CC:B5:C6:F9:24:82:E1:AE:B1:2A:5D:57:3E
    Signature Algorithm: ecdsa-with-SHA256
    Signature Value:
        30:44:02:20:51:14:42:80:e4:bd:b3:35:2f:ff:ca:13:34:5a:
        8a:6f:9f:84:81:3a:1a:ac:ad:82:59:37:5b:5f:12:68:6d:3d:
        02:20:22:ec:03:33:36:00:fa:38:68:31:2b:b4:e4:95:59:4d:
        19:ac:dd:34:a0:43:5f:7a:71:bd:cb:5a:22:76:54:ac
-----BEGIN CERTIFICATE-----
MIIBojCCAUmgAwIBAgIUYnOqijb4hObQn8MmPF+bPHmj2Q0wCgYIKoZIzj0EAwIw
FTETMBEGA1UEAwwKUEhBTlRPTS1DQTAeFw0yNTAyMjAwOTU4NDZaFw0zNTAyMTgw
OTU4NDZaMBcxFTATBgNVBAMMDFBIQU5UT00tQ1gtODBZMBMGByqGSM49AgEGCCqG
SM49AwEHA0IABLySyRSEBDghjslImQdgO7eecP1VC1Pv+4L2tJc0rugPQYW+CjOi
bDd2WFttuZcWm5SX+QYoLpaD0Tb1rOnzvGKjdTBzMAwGA1UdEwEB/wQCMAAwDgYD
VR0PAQH/BAQDAgWgMBMGA1UdJQQMMAoGCCsGAQUFBwMCMB0GA1UdDgQWBBQmnior
GxpkJ2RTeL7qnMpEubqGEDAfBgNVHSMEGDAWgBRfkLhyQki1zLXG+SSC4a6xKl1X
PjAKBggqhkjOPQQDAgNHADBEAiBRFEKA5L2zNS//yhM0Wopvn4SBOhqsrYJZN1tf
EmhtPQIgIuwDMzYA+jhoMSu05JVZTRms3TSgQ196cb3LWiJ2VKw=
-----END CERTIFICATE-----
