Certificate:
    Data:
        Version: 3 (0x2)
        Serial Number:
            5d:39:00:81:4a:45:7c:c8:71:2f:83:f0:88:af:53:7a:a0:5a:68:97
        Signature Algorithm: ecdsa-with-SHA256
        Issuer: CN = PHANTOM-CA
        Validity
            Not Before: Feb 20 09:01:26 2025 GMT
            Not After : Jan 27 09:01:26 2125 GMT
        Subject: CN = PHANTOM-CA
        Subject Public Key Info:
            Public Key Algorithm: id-ecPublicKey
                Public-Key: (256 bit)
                pub:
                    04:00:83:92:2a:12:f4:98:b1:0a:e1:22:0e:6a:2c:
                    bb:b1:49:77:05:62:93:92:14:bc:3f:94:44:d3:cb:
                    2f:96:1e:12:b4:23:70:2b:1b:68:24:de:f4:e2:97:
                    1e:e9:e3:0a:c3:bc:cd:84:f4:87:ed:dc:1f:0e:6c:
                    18:71:51:98:cb
                ASN1 OID: prime256v1
                NIST CURVE: P-256
        X509v3 extensions:
            X509v3 Basic Constraints: critical
                CA:TRUE
            X509v3 Key Usage: critical
                Digital Signature, Certificate Sign, CRL Sign
            X509v3 Extended Key Usage: 
                TLS Web Server Authentication, TLS Web Client Authentication
            X509v3 Subject Key Identifier: 
                5F:90:B8:72:42:48:B5:CC:B5:C6:F9:24:82:E1:AE:B1:2A:5D:57:3E
    Signature Algorithm: ecdsa-with-SHA256
    Signature Value:
        30:45:02:21:00:c9:0c:56:a0:f1:a5:19:8e:ea:e2:d8:ea:7e:
        a2:f2:ab:2c:7f:1f:c1:e0:1f:f9:b9:d2:c4:82:42:53:fc:b2:
        3f:02:20:6e:c2:c3:1c:79:02:9f:ef:5e:19:43:c6:70:56:7a:
        1a:73:55:30:8c:c8:ca:92:20:f1:f7:0e:12:2e:b9:48:c5
-----BEGIN CERTIFICATE-----
MIIBjzCCATWgAwIBAgIUXTkAgUpFfMhxL4PwiK9TeqBaaJcwCgYIKoZIzj0EAwIw
FTETMBEGA1UEAwwKUEhBTlRPTS1DQTAgFw0yNTAyMjAwOTAxMjZaGA8yMTI1MDEy
NzA5MDEyNlowFTETMBEGA1UEAwwKUEhBTlRPTS1DQTBZMBMGByqGSM49AgEGCCqG
SM49AwEHA0IABACDkioS9JixCuEiDmosu7FJdwVik5IUvD+URNPLL5YeErQjcCsb
aCTe9OKXHunjCsO8zYT0h+3cHw5sGHFRmMujYTBfMA8GA1UdEwEB/wQFMAMBAf8w
DgYDVR0PAQH/BAQDAgGGMB0GA1UdJQQWMBQGCCsGAQUFBwMBBggrBgEFBQcDAjAd
BgNVHQ4EFgQUX5C4ckJItcy1xvkkguGusSpdVz4wCgYIKoZIzj0EAwIDSAAwRQIh
AMkMVqDxpRmO6uLY6n6i8qssfx/B4B/5udLEgkJT/LI/AiBuwsMceQKf714ZQ8Zw
Vnoac1UwjMjKkiDx9w4SLrlIxQ==
-----END CERTIFICATE-----
